(dp1
S'node_deps'
p2
(dp3
S'\xccIC\x02\xb3]\x92\xc3\x906\x84\xdc\x0fy\xd9\xd3'
p4
(lp5
ssS'raw_deps'
p6
(dp7
g4
(lp8
S'Python.h'
p9
assS'root'
p10
ccopy_reg
_reconstructor
p11
(cwaflib.Node
Nod3
p12
c__builtin__
object
p13
NtRp14
(S''
N(dp15
S'Users'
p16
g11
(g12
g13
NtRp17
(g16
g14
(dp18
S'angusfretwell'
p19
g11
(g12
g13
NtRp20
(g19
g17
(dp21
S'Documents'
p22
g11
(g12
g13
NtRp23
(g22
g20
(dp24
S'Gnomescroll'
p25
g11
(g12
g13
NtRp26
(g25
g23
(dp27
S'dc_mmo'
p28
g11
(g12
g13
NtRp29
(g28
g26
(dp30
S'netclient'
p31
g11
(g12
g13
NtRp32
(g31
g29
(dp33
S'build'
p34
g11
(g12
g13
NtRp35
(g34
g32
(dp36
S'.conf_check_c6c8da319381fd66e61a95e5d53bf289'
p37
g11
(g12
g13
NtRp38
(g37
g35
(dp39
S'test.c'
p40
g11
(g12
g13
NtRp41
(g40
g38
NS'\xd7`*\x94\xdc\xd2<\xe2\x1a\x95O\x19\x7f\x81>%'
p42
tbsS'testbuild'
p43
g11
(g12
g13
NtRp44
(g43
g38
(dp45
S'testprog'
p46
g11
(g12
g13
NtRp47
(g46
g44
NS'\xfd\xee\xa5-d\xd1d\xdb\\4\xd5+}\x8e\x03\x9c'
p48
tbsS'test.c.1.o'
p49
g11
(g12
g13
NtRp50
(g49
g44
NS'\x88\x81\xcb\xd3\xa8\xb1"yz\xa9\x97\xff\xd0\xaa1\x16'
p51
tbsNtbsNtbsNtbsNtbsNtbsNtbsNtbsNtbsNtbsS'System'
p52
g11
(g12
g13
NtRp53
(g52
g14
(dp54
S'Library'
p55
g11
(g12
g13
NtRp56
(g55
g53
(dp57
S'Frameworks'
p58
g11
(g12
g13
NtRp59
(g58
g56
(dp60
S'Python.framework'
p61
g11
(g12
g13
NtRp62
(g61
g59
(dp63
S'Versions'
p64
g11
(g12
g13
NtRp65
(g64
g62
(dp66
S'2.7'
p67
g11
(g12
g13
NtRp68
(g67
g65
(dp69
S'include'
p70
g11
(g12
g13
NtRp71
(g70
g68
(dp72
S'python2.7'
p73
g11
(g12
g13
NtRp74
(g73
g71
NNtbsNtbsNtbsNtbsNtbsNtbsNtbsNtbsNtbsS'task_sigs'
p75
(dp76
(g4
S'imp'
p77
tp78
S'\x88\x81\xcb\xd3\xa8\xb1"yz\xa9\x97\xff\xd0\xaa1\x16'
p79
sS'\xc6[\xce{wt;j\xc4u\xd0\xc0+\x83\xee$'
p80
g48
sg4
g51
ss.