(dp1
S'node_deps'
p2
(dp3
S'\xbf\xfd\xee\xe0\xa8\xe4\xf9\xfd\xcb\x95\x04\xd8e\xaa\xf9>'
p4
(lp5
ssS'raw_deps'
p6
(dp7
g4
(lp8
ssS'root'
p9
ccopy_reg
_reconstructor
p10
(cwaflib.Node
Nod3
p11
c__builtin__
object
p12
NtRp13
(S''
N(dp14
S'Users'
p15
g10
(g11
g12
NtRp16
(g15
g13
(dp17
S'angusfretwell'
p18
g10
(g11
g12
NtRp19
(g18
g16
(dp20
S'Documents'
p21
g10
(g11
g12
NtRp22
(g21
g19
(dp23
S'Gnomescroll'
p24
g10
(g11
g12
NtRp25
(g24
g22
(dp26
S'dc_mmo'
p27
g10
(g11
g12
NtRp28
(g27
g25
(dp29
S'netclient'
p30
g10
(g11
g12
NtRp31
(g30
g28
(dp32
S'build'
p33
g10
(g11
g12
NtRp34
(g33
g31
(dp35
S'.conf_check_e5363a516de0b554508ed1ac445b05db'
p36
g10
(g11
g12
NtRp37
(g36
g34
(dp38
S'test.c'
p39
g10
(g11
g12
NtRp40
(g39
g37
NS'\x93\x17E\xecC\x87\xe9\xdf\x02\xe2\xc3Y\x0be\xf8c'
p41
tbsS'testbuild'
p42
g10
(g11
g12
NtRp43
(g42
g37
(dp44
S'testprog'
p45
g10
(g11
g12
NtRp46
(g45
g43
NS'\xf2\x1b+O\xd4?\xe8]7Q\x100\xd6\xb5\x02\xba'
p47
tbsS'test.c.1.o'
p48
g10
(g11
g12
NtRp49
(g48
g43
NS'\xc7\x9f)0&\x8f\xd8\x9aLg\xd3\xf8\x16\xffF\x8c'
p50
tbsNtbsNtbsNtbsNtbsNtbsNtbsNtbsNtbsNtbsNtbsS'task_sigs'
p51
(dp52
(g4
S'imp'
p53
tp54
S'\xc7\x9f)0&\x8f\xd8\x9aLg\xd3\xf8\x16\xffF\x8c'
p55
sg4
g50
sS'\xdd\xe7\xd7\x0c\x7f\x15\x0f\xc5E\x88\xc9n0{2S'
p56
g47
ss.