(dp1
S'node_deps'
p2
(dp3
S'\x9cv\xe6:\xf9j\xca\x9b\xc5\xab\xdf\x02J\x1f\xef\xbf'
p4
(lp5
ssS'raw_deps'
p6
(dp7
g4
(lp8
ssS'root'
p9
ccopy_reg
_reconstructor
p10
(cwaflib.Node
Nod3
p11
c__builtin__
object
p12
NtRp13
(S''
N(dp14
S'Users'
p15
g10
(g11
g12
NtRp16
(g15
g13
(dp17
S'angusfretwell'
p18
g10
(g11
g12
NtRp19
(g18
g16
(dp20
S'Documents'
p21
g10
(g11
g12
NtRp22
(g21
g19
(dp23
S'Gnomescroll'
p24
g10
(g11
g12
NtRp25
(g24
g22
(dp26
S'dc_mmo'
p27
g10
(g11
g12
NtRp28
(g27
g25
(dp29
S'netclient'
p30
g10
(g11
g12
NtRp31
(g30
g28
(dp32
S'libraries'
p33
g10
(g11
g12
NtRp34
(g33
g31
(dp35
S'lin'
p36
g10
(g11
g12
NtRp37
(g36
g34
(dp38
S'fmod'
p39
g10
(g11
g12
NtRp40
(g39
g37
(dp41
S'inc'
p42
g10
(g11
g12
NtRp43
(g42
g40
NNtbsNtbsNtbsNtbsS'build'
p44
g10
(g11
g12
NtRp45
(g44
g31
(dp46
S'libraries'
p47
g10
(g11
g12
NtRp48
(g47
g45
(dp49
S'lin'
p50
g10
(g11
g12
NtRp51
(g50
g48
(dp52
S'fmod'
p53
g10
(g11
g12
NtRp54
(g53
g51
(dp55
S'inc'
p56
g10
(g11
g12
NtRp57
(g56
g54
(dp58
NtbsNtbsNtbsNtbsS'.conf_check_837cb30421f6dadd30c876b822d252d1'
p59
g10
(g11
g12
NtRp60
(g59
g45
(dp61
S'test.c'
p62
g10
(g11
g12
NtRp63
(g62
g60
NS'\x93\x17E\xecC\x87\xe9\xdf\x02\xe2\xc3Y\x0be\xf8c'
p64
tbsS'testbuild'
p65
g10
(g11
g12
NtRp66
(g65
g60
(dp67
S'testprog'
p68
g10
(g11
g12
NtRp69
(g68
g66
NS'\x85\x9a\xc9\xed.\xa7\xd0@\xe0Y\xdeT\xc3$\xfc\xce'
p70
tbsS'test.c.1.o'
p71
g10
(g11
g12
NtRp72
(g71
g66
NS'\x11\x93\x00\x06\x7fR\x94\xeff\xa8\xbeg\x9b\x95}@'
p73
tbsNtbsNtbsNtbsNtbsNtbsNtbsNtbsNtbsNtbsNtbsS'task_sigs'
p74
(dp75
g4
g73
sS'\xdd2\x03\xa2\x15\x8b\xac\x92j\x8de\x12\xfa\xa4\\\xdc'
p76
g70
s(g4
S'imp'
p77
tp78
S'\x11\x93\x00\x06\x7fR\x94\xeff\xa8\xbeg\x9b\x95}@'
p79
ss.