(dp1
S'node_deps'
p2
(dp3
S'\xa3M\x93\x89\xc6\xaa\xcd\xe5\x1e\xc6\xc8\xc4$\xb2\xc3+'
p4
(lp5
ssS'raw_deps'
p6
(dp7
g4
(lp8
S'fmod.h'
p9
assS'root'
p10
ccopy_reg
_reconstructor
p11
(cwaflib.Node
Nod3
p12
c__builtin__
object
p13
NtRp14
(S''
N(dp15
S'Users'
p16
g11
(g12
g13
NtRp17
(g16
g14
(dp18
S'angusfretwell'
p19
g11
(g12
g13
NtRp20
(g19
g17
(dp21
S'Documents'
p22
g11
(g12
g13
NtRp23
(g22
g20
(dp24
S'Gnomescroll'
p25
g11
(g12
g13
NtRp26
(g25
g23
(dp27
S'dc_mmo'
p28
g11
(g12
g13
NtRp29
(g28
g26
(dp30
S'netclient'
p31
g11
(g12
g13
NtRp32
(g31
g29
(dp33
S'libraries'
p34
g11
(g12
g13
NtRp35
(g34
g32
(dp36
S'lin'
p37
g11
(g12
g13
NtRp38
(g37
g35
(dp39
S'fmod'
p40
g11
(g12
g13
NtRp41
(g40
g38
(dp42
S'inc'
p43
g11
(g12
g13
NtRp44
(g43
g41
NNtbsNtbsNtbsNtbsS'build'
p45
g11
(g12
g13
NtRp46
(g45
g32
(dp47
S'libraries'
p48
g11
(g12
g13
NtRp49
(g48
g46
(dp50
S'lin'
p51
g11
(g12
g13
NtRp52
(g51
g49
(dp53
S'fmod'
p54
g11
(g12
g13
NtRp55
(g54
g52
(dp56
S'inc'
p57
g11
(g12
g13
NtRp58
(g57
g55
(dp59
NtbsNtbsNtbsNtbsS'.conf_check_2d884d44d1aa606cf5c8e65ce69ef8a3'
p60
g11
(g12
g13
NtRp61
(g60
g46
(dp62
S'test.c'
p63
g11
(g12
g13
NtRp64
(g63
g61
NS'\x99\xdf\xb8\xb2g\x0f~\xb8\x96\xcf\x0f\xb1!\xe7\x7f\x14'
p65
tbsS'testbuild'
p66
g11
(g12
g13
NtRp67
(g66
g61
(dp68
S'testprog'
p69
g11
(g12
g13
NtRp70
(g69
g67
NS'1~?p0\x0b\x84\x17\xdb\xfc\xd8*\x96\xd4\xf6\xa2'
p71
tbsS'test.c.1.o'
p72
g11
(g12
g13
NtRp73
(g72
g67
NS'\xf3\x90\xa2\x12.\x06\xb8\xf5\xb7P\xae\xf3\xe8\xbe\xe5\xbc'
p74
tbsNtbsNtbsNtbsNtbsNtbsNtbsNtbsNtbsNtbsNtbsS'task_sigs'
p75
(dp76
g4
g74
sS'\x07\x8e\x1ba\rL\xb1\xb5\x9c\xfa\x0c\xfd=\x1a\xac\xd6'
p77
g71
s(g4
S'imp'
p78
tp79
S'\xf3\x90\xa2\x12.\x06\xb8\xf5\xb7P\xae\xf3\xe8\xbe\xe5\xbc'
p80
ss.