(dp1
S'node_deps'
p2
(dp3
S'\xea8J\xf5\xac2l\x93j\x9d\xf7F\xd0\xe0s\x88'
p4
(lp5
ssS'raw_deps'
p6
(dp7
g4
(lp8
S'SDL_image.h'
p9
assS'root'
p10
ccopy_reg
_reconstructor
p11
(cwaflib.Node
Nod3
p12
c__builtin__
object
p13
NtRp14
(S''
N(dp15
S'Users'
p16
g11
(g12
g13
NtRp17
(g16
g14
(dp18
S'angusfretwell'
p19
g11
(g12
g13
NtRp20
(g19
g17
(dp21
S'Documents'
p22
g11
(g12
g13
NtRp23
(g22
g20
(dp24
S'Gnomescroll'
p25
g11
(g12
g13
NtRp26
(g25
g23
(dp27
S'dc_mmo'
p28
g11
(g12
g13
NtRp29
(g28
g26
(dp30
S'netclient'
p31
g11
(g12
g13
NtRp32
(g31
g29
(dp33
S'build'
p34
g11
(g12
g13
NtRp35
(g34
g32
(dp36
S'.conf_check_53980517ca64e63faa6fff89e8a3b48a'
p37
g11
(g12
g13
NtRp38
(g37
g35
(dp39
S'test.c'
p40
g11
(g12
g13
NtRp41
(g40
g38
NS'\xe9\xc0\xb5$\x88\x80\x8f\xc3\x80\x03\xc77\xabz\x17\x8c'
p42
tbsS'testbuild'
p43
g11
(g12
g13
NtRp44
(g43
g38
(dp45
S'testprog'
p46
g11
(g12
g13
NtRp47
(g46
g44
NS'5s\x00\x8a\\\r\x13\x19\x18\xd1\x94\xf9\xde\x8a\x97k'
p48
tbsS'test.c.1.o'
p49
g11
(g12
g13
NtRp50
(g49
g44
NS'\xbb\x1c!\xa9\xbb\xc7\x05\xf0\n3\xbb6\x02\x19\x88&'
p51
tbsNtbsNtbsNtbsNtbsNtbsNtbsNtbsNtbsNtbsS'usr'
p52
g11
(g12
g13
NtRp53
(g52
g14
(dp54
S'local'
p55
g11
(g12
g13
NtRp56
(g55
g53
(dp57
S'include'
p58
g11
(g12
g13
NtRp59
(g58
g56
(dp60
S'SDL'
p61
g11
(g12
g13
NtRp62
(g61
g59
NNtbsNtbsNtbsNtbsNtbsS'task_sigs'
p63
(dp64
g4
g51
s(g4
S'imp'
p65
tp66
S'\xbb\x1c!\xa9\xbb\xc7\x05\xf0\n3\xbb6\x02\x19\x88&'
p67
sS'\xc6\xb2\xdd[\xe9\x82$\xb7\x9fP\x9cE\xa4t\xc9\x10'
p68
g48
ss.